target datalayout = "e-m:e-p270:32:32-p271:32:32-p272:64:64-i64:64-i128:128-f80:128-n8:16:32:64-S128"
target triple = "x86_64-unknown-linux-gnu"

%struct.QTailQLink = type { ptr, ptr }
%struct.AHCIState = type { ptr, ptr, %struct.AHCIControlRegs, %struct.MemoryRegion, %struct.MemoryRegion, i32, i32, i32, ptr, ptr }
%struct.AHCIControlRegs = type { i32, i32, i32, i32, i32 }
%struct.MemoryRegion = type { %struct.Object, i8, i8, i8, i8, i8, i8, i8, i8, i8, i8, ptr, ptr, ptr, ptr, ptr, ptr, i32, i128, i64, ptr, i64, i8, i8, i8, i8, i8, ptr, i64, i32, %union.anon, %union.anon.0, %union.anon.1, ptr, i32, ptr, ptr, i8 }
%struct.Object = type { ptr, ptr, ptr, i32, ptr }
%union.anon = type { %struct.QTailQLink }
%union.anon.0 = type { %struct.QTailQLink }
%union.anon.1 = type { %struct.QTailQLink }

; Function Attrs: nounwind sspstrong uwtable
define internal i64 @ahci_idp_read(ptr noundef %opaque, i64 noundef %addr, i32 noundef %size) #0 {
entry:
  %retval = alloca i64, align 8
  %opaque.addr = alloca ptr, align 8
  %addr.addr = alloca i64, align 8
  %size.addr = alloca i32, align 4
  %s = alloca ptr, align 8
  store ptr %opaque, ptr %opaque.addr, align 8
  store i64 %addr, ptr %addr.addr, align 8
  store i32 %size, ptr %size.addr, align 4
  %0 = load ptr, ptr %opaque.addr, align 8
  store ptr %0, ptr %s, align 8
  %1 = load i64, ptr %addr.addr, align 8
  %2 = load ptr, ptr %s, align 8
  %idp_offset = getelementptr inbounds %struct.AHCIState, ptr %2, i32 0, i32 5
  %3 = load i32, ptr %idp_offset, align 16
  %conv = zext i32 %3 to i64
  %cmp = icmp eq i64 %1, %conv
  br i1 %cmp, label %if.then, label %if.else

if.then:                                          ; preds = %entry
  %4 = load ptr, ptr %s, align 8
  %idp_index = getelementptr inbounds %struct.AHCIState, ptr %4, i32 0, i32 6
  %5 = load i32, ptr %idp_index, align 4
  %conv2 = zext i32 %5 to i64
  store i64 %conv2, ptr %retval, align 8
  br label %return

if.else:                                          ; preds = %entry
  %6 = load i64, ptr %addr.addr, align 8
  %7 = load ptr, ptr %s, align 8
  %idp_offset3 = getelementptr inbounds %struct.AHCIState, ptr %7, i32 0, i32 5
  %8 = load i32, ptr %idp_offset3, align 16
  %add = add i32 %8, 4
  %conv4 = zext i32 %add to i64
  %cmp5 = icmp eq i64 %6, %conv4
  br i1 %cmp5, label %if.then7, label %if.else10

if.then7:                                         ; preds = %if.else
  %9 = load ptr, ptr %opaque.addr, align 8
  %10 = load ptr, ptr %s, align 8
  %idp_index8 = getelementptr inbounds %struct.AHCIState, ptr %10, i32 0, i32 6
  %11 = load i32, ptr %idp_index8, align 4
  %conv9 = zext i32 %11 to i64
  %12 = load i32, ptr %size.addr, align 4
  %call = call i64 @ahci_mem_read(ptr noundef %9, i64 noundef %conv9, i32 noundef %12)
  store i64 %call, ptr %retval, align 8
  br label %return

if.else10:                                        ; preds = %if.else
  store i64 0, ptr %retval, align 8
  br label %return

return:                                           ; preds = %if.else10, %if.then7, %if.then
  %13 = load i64, ptr %retval, align 8
  ret i64 %13
}