; Function Attrs: nounwind sspstrong uwtable
define internal i64 @ahci_idp_read(ptr noundef %opaque, i64 noundef %addr, i32 noundef %size) #0 {
entry:
  %idp_offset = getelementptr inbounds nuw i8, ptr %opaque, i64 592
  %0 = load i32, ptr %idp_offset, align 16
  %conv = zext i32 %0 to i64
  %cmp = icmp eq i64 %addr, %conv
  br i1 %cmp, label %if.then, label %if.else

if.then:                                          ; preds = %entry
  %idp_index = getelementptr inbounds nuw i8, ptr %opaque, i64 596
  %1 = load i32, ptr %idp_index, align 4
  %conv2 = zext i32 %1 to i64
  br label %return

if.else:                                          ; preds = %entry
  %add = add i32 %0, 4
  %conv4 = zext i32 %add to i64
  %cmp5 = icmp eq i64 %addr, %conv4
  br i1 %cmp5, label %if.then7, label %return

if.then7:                                         ; preds = %if.else
  %idp_index8 = getelementptr inbounds nuw i8, ptr %opaque, i64 596
  %2 = load i32, ptr %idp_index8, align 4
  %conv9 = zext i32 %2 to i64
  %call = tail call i64 @ahci_mem_read(ptr noundef nonnull %opaque, i64 noundef %conv9, i32 noundef %size)
  br label %return

return:                                           ; preds = %if.else, %if.then7, %if.then
  %retval.0 = phi i64 [ %conv2, %if.then ], [ %call, %if.then7 ], [ 0, %if.else ]
  ret i64 %retval.0
}